; Function Attrs: nounwind uwtable
define dso_local { i64, i32 } @AlterSubscriptionOwner(ptr noundef %0, i32 noundef %1) local_unnamed_addr #0 {
  %3 = tail call ptr @table_open(i32 noundef 6100, i32 noundef 3) #10
  %4 = load i32, ptr @MyDatabaseId, align 4
  %5 = zext i32 %4 to i64
  %6 = ptrtoint ptr %0 to i64
  %7 = tail call ptr @SearchSysCacheCopy(i32 noundef 66, i64 noundef %5, i64 noundef %6, i64 noundef 0, i64 noundef 0) #10
  %.not = icmp eq ptr %7, null
  br i1 %.not, label %8, label %12

8:                                                ; preds = %2
  %9 = tail call zeroext i1 @errstart_cold(i32 noundef 21, ptr noundef null) #11
  tail call void @llvm.assume(i1 %9)
  %10 = tail call i32 @errcode(i32 noundef 67137668) #10
  %11 = tail call i32 (ptr, ...) @errmsg(ptr noundef nonnull @.str.14, ptr noundef %0) #10
  tail call void @errfinish(ptr noundef nonnull @.str.4, i32 noundef 2044, ptr noundef nonnull @__func__.AlterSubscriptionOwner) #10
  unreachable

12:                                               ; preds = %2
  %13 = getelementptr i8, ptr %7, i64 16
  %.val = load ptr, ptr %13, align 8
  %14 = getelementptr inbounds nuw i8, ptr %.val, i64 22
  %15 = load i8, ptr %14, align 2
  %16 = zext i8 %15 to i64
  %17 = getelementptr inbounds nuw i8, ptr %.val, i64 %16
  %18 = load i32, ptr %17, align 8
  tail call fastcc void @AlterSubscriptionOwner_internal(ptr noundef %3, ptr noundef %7, i32 noundef %1)
  tail call void @heap_freetuple(ptr noundef nonnull %7) #10
  tail call void @table_close(ptr noundef %3, i32 noundef 3) #10
  %.sroa.211.0.insert.ext = zext i32 %18 to i64
  %.sroa.211.0.insert.shift = shl nuw i64 %.sroa.211.0.insert.ext, 32
  %.sroa.010.0.insert.insert = or disjoint i64 %.sroa.211.0.insert.shift, 6100
  %.fca.0.insert = insertvalue { i64, i32 } poison, i64 %.sroa.010.0.insert.insert, 0
  %.fca.1.insert = insertvalue { i64, i32 } %.fca.0.insert, i32 0, 1
  ret { i64, i32 } %.fca.1.insert
}